target datalayout = "e-m:e-p270:32:32-p271:32:32-p272:64:64-i64:64-i128:128-f80:128-n8:16:32:64-S128"
target triple = "x86_64-pc-linux-gnu"

%struct.anon = type { i64, double, double, double, double, double }

@.str.10 = private unnamed_addr constant [19 x i8] c"N_VGetArrayPointer\00", align 1
@stderr = external global ptr, align 8
@.str.53 = private unnamed_addr constant [55 x i8] c"\0ASUNDIALS_ERROR: %s() failed - returned NULL pointer\0A\0A\00", align 1
@.str.54 = private unnamed_addr constant [46 x i8] c"\0ASUNDIALS_ERROR: %s() failed with flag = %d\0A\0A\00", align 1
@.str.55 = private unnamed_addr constant [53 x i8] c"\0AMEMORY_ERROR: %s() failed - returned NULL pointer\0A\0A\00", align 1

; Function Attrs: nounwind uwtable
define internal i32 @check_retval(ptr noundef %0, ptr noundef %1, i32 noundef %2) #0 {
  %4 = alloca i32, align 4
  %5 = alloca ptr, align 8
  %6 = alloca ptr, align 8
  %7 = alloca i32, align 4
  %8 = alloca ptr, align 8
  %9 = alloca i32, align 4
  store ptr %0, ptr %5, align 8, !tbaa !21
  store ptr %1, ptr %6, align 8, !tbaa !37
  store i32 %2, ptr %7, align 4, !tbaa !4
  call void @llvm.lifetime.start.p0(i64 8, ptr %8) #6
  %10 = load i32, ptr %7, align 4, !tbaa !4
  %11 = icmp eq i32 %10, 0
  br i1 %11, label %12, label %19

12:                                               ; preds = %3
  %13 = load ptr, ptr %5, align 8, !tbaa !21
  %14 = icmp eq ptr %13, null
  br i1 %14, label %15, label %19

15:                                               ; preds = %12
  %16 = load ptr, ptr @stderr, align 8, !tbaa !35
  %17 = load ptr, ptr %6, align 8, !tbaa !37
  %18 = call i32 (ptr, ptr, ...) @fprintf(ptr noundef %16, ptr noundef @.str.53, ptr noundef %17) #6
  store i32 1, ptr %4, align 4
  store i32 1, ptr %9, align 4
  br label %47

19:                                               ; preds = %12, %3
  %20 = load i32, ptr %7, align 4, !tbaa !4
  %21 = icmp eq i32 %20, 1
  br i1 %21, label %22, label %34

22:                                               ; preds = %19
  %23 = load ptr, ptr %5, align 8, !tbaa !21
  store ptr %23, ptr %8, align 8, !tbaa !39
  %24 = load ptr, ptr %8, align 8, !tbaa !39
  %25 = load i32, ptr %24, align 4, !tbaa !4
  %26 = icmp slt i32 %25, 0
  br i1 %26, label %27, label %33

27:                                               ; preds = %22
  %28 = load ptr, ptr @stderr, align 8, !tbaa !35
  %29 = load ptr, ptr %6, align 8, !tbaa !37
  %30 = load ptr, ptr %8, align 8, !tbaa !39
  %31 = load i32, ptr %30, align 4, !tbaa !4
  %32 = call i32 (ptr, ptr, ...) @fprintf(ptr noundef %28, ptr noundef @.str.54, ptr noundef %29, i32 noundef %31) #6
  store i32 1, ptr %4, align 4
  store i32 1, ptr %9, align 4
  br label %47

33:                                               ; preds = %22
  br label %45

34:                                               ; preds = %19
  %35 = load i32, ptr %7, align 4, !tbaa !4
  %36 = icmp eq i32 %35, 2
  br i1 %36, label %37, label %44

37:                                               ; preds = %34
  %38 = load ptr, ptr %5, align 8, !tbaa !21
  %39 = icmp eq ptr %38, null
  br i1 %39, label %40, label %44

40:                                               ; preds = %37
  %41 = load ptr, ptr @stderr, align 8, !tbaa !35
  %42 = load ptr, ptr %6, align 8, !tbaa !37
  %43 = call i32 (ptr, ptr, ...) @fprintf(ptr noundef %41, ptr noundef @.str.55, ptr noundef %42) #6
  store i32 1, ptr %4, align 4
  store i32 1, ptr %9, align 4
  br label %47

44:                                               ; preds = %37, %34
  br label %45

45:                                               ; preds = %44, %33
  br label %46

46:                                               ; preds = %45
  store i32 0, ptr %4, align 4
  store i32 1, ptr %9, align 4
  br label %47

47:                                               ; preds = %46, %40, %27, %15
  call void @llvm.lifetime.end.p0(i64 8, ptr %8) #6
  %48 = load i32, ptr %4, align 4
  ret i32 %48
}

; Function Attrs: nounwind uwtable
define internal i32 @fs(double noundef %0, ptr noundef %1, ptr noundef %2, ptr noundef %3) #0 {
  %5 = alloca i32, align 4
  %6 = alloca double, align 8
  %7 = alloca ptr, align 8
  %8 = alloca ptr, align 8
  %9 = alloca ptr, align 8
  %10 = alloca ptr, align 8
  %11 = alloca i64, align 8
  %12 = alloca double, align 8
  %13 = alloca double, align 8
  %14 = alloca ptr, align 8
  %15 = alloca ptr, align 8
  %16 = alloca double, align 8
  %17 = alloca i64, align 8
  %18 = alloca i32, align 4
  store double %0, ptr %6, align 8, !tbaa !11
  store ptr %1, ptr %7, align 8, !tbaa !15
  store ptr %2, ptr %8, align 8, !tbaa !15
  store ptr %3, ptr %9, align 8, !tbaa !21
  call void @llvm.lifetime.start.p0(i64 8, ptr %10) #6
  %19 = load ptr, ptr %9, align 8, !tbaa !21
  store ptr %19, ptr %10, align 8, !tbaa !21
  call void @llvm.lifetime.start.p0(i64 8, ptr %11) #6
  %20 = load ptr, ptr %10, align 8, !tbaa !21
  %21 = getelementptr inbounds nuw %struct.anon, ptr %20, i32 0, i32 0
  %22 = load i64, ptr %21, align 8, !tbaa !26
  store i64 %22, ptr %11, align 8, !tbaa !13
  call void @llvm.lifetime.start.p0(i64 8, ptr %12) #6
  %23 = load ptr, ptr %10, align 8, !tbaa !21
  %24 = getelementptr inbounds nuw %struct.anon, ptr %23, i32 0, i32 4
  %25 = load double, ptr %24, align 8, !tbaa !30
  store double %25, ptr %12, align 8, !tbaa !11
  call void @llvm.lifetime.start.p0(i64 8, ptr %13) #6
  %26 = load ptr, ptr %10, align 8, !tbaa !21
  %27 = getelementptr inbounds nuw %struct.anon, ptr %26, i32 0, i32 1
  %28 = load double, ptr %27, align 8, !tbaa !32
  store double %28, ptr %13, align 8, !tbaa !11
  call void @llvm.lifetime.start.p0(i64 8, ptr %14) #6
  store ptr null, ptr %14, align 8, !tbaa !24
  call void @llvm.lifetime.start.p0(i64 8, ptr %15) #6
  store ptr null, ptr %15, align 8, !tbaa !24
  call void @llvm.lifetime.start.p0(i64 8, ptr %16) #6
  call void @llvm.lifetime.start.p0(i64 8, ptr %17) #6
  %29 = load ptr, ptr %7, align 8, !tbaa !15
  %30 = call ptr @N_VGetArrayPointer(ptr noundef %29)
  store ptr %30, ptr %14, align 8, !tbaa !24
  %31 = load ptr, ptr %14, align 8, !tbaa !24
  %32 = call i32 @check_retval(ptr noundef %31, ptr noundef @.str.10, i32 noundef 0)
  %33 = icmp ne i32 %32, 0
  br i1 %33, label %34, label %35

34:                                               ; preds = %4
  store i32 1, ptr %5, align 4
  store i32 1, ptr %18, align 4
  br label %303

35:                                               ; preds = %4
  %36 = load ptr, ptr %8, align 8, !tbaa !15
  %37 = call ptr @N_VGetArrayPointer(ptr noundef %36)
  store ptr %37, ptr %15, align 8, !tbaa !24
  %38 = load ptr, ptr %15, align 8, !tbaa !24
  %39 = call i32 @check_retval(ptr noundef %38, ptr noundef @.str.10, i32 noundef 0)
  %40 = icmp ne i32 %39, 0
  br i1 %40, label %41, label %42

41:                                               ; preds = %35
  store i32 1, ptr %5, align 4
  store i32 1, ptr %18, align 4
  br label %303

42:                                               ; preds = %35
  %43 = load double, ptr %12, align 8, !tbaa !11
  %44 = fneg double %43
  %45 = load double, ptr %13, align 8, !tbaa !11
  %46 = fdiv double %44, %45
  store double %46, ptr %16, align 8, !tbaa !11
  %47 = load double, ptr %12, align 8, !tbaa !11
  %48 = fcmp ogt double %47, 0.000000e+00
  br i1 %48, label %49, label %167

49:                                               ; preds = %42
  %50 = load double, ptr %16, align 8, !tbaa !11
  %51 = load ptr, ptr %14, align 8, !tbaa !24
  %52 = getelementptr inbounds double, ptr %51, i64 0
  %53 = load double, ptr %52, align 8, !tbaa !11
  %54 = load ptr, ptr %14, align 8, !tbaa !24
  %55 = load i64, ptr %11, align 8, !tbaa !13
  %56 = sub nsw i64 %55, 1
  %57 = mul nsw i64 3, %56
  %58 = add nsw i64 %57, 0
  %59 = getelementptr inbounds double, ptr %54, i64 %58
  %60 = load double, ptr %59, align 8, !tbaa !11
  %61 = fsub double %53, %60
  %62 = fmul double %50, %61
  %63 = load ptr, ptr %15, align 8, !tbaa !24
  %64 = getelementptr inbounds double, ptr %63, i64 0
  store double %62, ptr %64, align 8, !tbaa !11
  %65 = load double, ptr %16, align 8, !tbaa !11
  %66 = load ptr, ptr %14, align 8, !tbaa !24
  %67 = getelementptr inbounds double, ptr %66, i64 1
  %68 = load double, ptr %67, align 8, !tbaa !11
  %69 = load ptr, ptr %14, align 8, !tbaa !24
  %70 = load i64, ptr %11, align 8, !tbaa !13
  %71 = sub nsw i64 %70, 1
  %72 = mul nsw i64 3, %71
  %73 = add nsw i64 %72, 1
  %74 = getelementptr inbounds double, ptr %69, i64 %73
  %75 = load double, ptr %74, align 8, !tbaa !11
  %76 = fsub double %68, %75
  %77 = fmul double %65, %76
  %78 = load ptr, ptr %15, align 8, !tbaa !24
  %79 = getelementptr inbounds double, ptr %78, i64 1
  store double %77, ptr %79, align 8, !tbaa !11
  %80 = load double, ptr %16, align 8, !tbaa !11
  %81 = load ptr, ptr %14, align 8, !tbaa !24
  %82 = getelementptr inbounds double, ptr %81, i64 2
  %83 = load double, ptr %82, align 8, !tbaa !11
  %84 = load ptr, ptr %14, align 8, !tbaa !24
  %85 = load i64, ptr %11, align 8, !tbaa !13
  %86 = sub nsw i64 %85, 1
  %87 = mul nsw i64 3, %86
  %88 = add nsw i64 %87, 2
  %89 = getelementptr inbounds double, ptr %84, i64 %88
  %90 = load double, ptr %89, align 8, !tbaa !11
  %91 = fsub double %83, %90
  %92 = fmul double %80, %91
  %93 = load ptr, ptr %15, align 8, !tbaa !24
  %94 = getelementptr inbounds double, ptr %93, i64 2
  store double %92, ptr %94, align 8, !tbaa !11
  store i64 1, ptr %17, align 8, !tbaa !13
  br label %95

95:                                               ; preds = %163, %49
  %96 = load i64, ptr %17, align 8, !tbaa !13
  %97 = load i64, ptr %11, align 8, !tbaa !13
  %98 = icmp slt i64 %96, %97
  br i1 %98, label %99, label %166

99:                                               ; preds = %95
  %100 = load double, ptr %16, align 8, !tbaa !11
  %101 = load ptr, ptr %14, align 8, !tbaa !24
  %102 = load i64, ptr %17, align 8, !tbaa !13
  %103 = mul nsw i64 3, %102
  %104 = add nsw i64 %103, 0
  %105 = getelementptr inbounds double, ptr %101, i64 %104
  %106 = load double, ptr %105, align 8, !tbaa !11
  %107 = load ptr, ptr %14, align 8, !tbaa !24
  %108 = load i64, ptr %17, align 8, !tbaa !13
  %109 = sub nsw i64 %108, 1
  %110 = mul nsw i64 3, %109
  %111 = add nsw i64 %110, 0
  %112 = getelementptr inbounds double, ptr %107, i64 %111
  %113 = load double, ptr %112, align 8, !tbaa !11
  %114 = fsub double %106, %113
  %115 = fmul double %100, %114
  %116 = load ptr, ptr %15, align 8, !tbaa !24
  %117 = load i64, ptr %17, align 8, !tbaa !13
  %118 = mul nsw i64 3, %117
  %119 = add nsw i64 %118, 0
  %120 = getelementptr inbounds double, ptr %116, i64 %119
  store double %115, ptr %120, align 8, !tbaa !11
  %121 = load double, ptr %16, align 8, !tbaa !11
  %122 = load ptr, ptr %14, align 8, !tbaa !24
  %123 = load i64, ptr %17, align 8, !tbaa !13
  %124 = mul nsw i64 3, %123
  %125 = add nsw i64 %124, 1
  %126 = getelementptr inbounds double, ptr %122, i64 %125
  %127 = load double, ptr %126, align 8, !tbaa !11
  %128 = load ptr, ptr %14, align 8, !tbaa !24
  %129 = load i64, ptr %17, align 8, !tbaa !13
  %130 = sub nsw i64 %129, 1
  %131 = mul nsw i64 3, %130
  %132 = add nsw i64 %131, 1
  %133 = getelementptr inbounds double, ptr %128, i64 %132
  %134 = load double, ptr %133, align 8, !tbaa !11
  %135 = fsub double %127, %134
  %136 = fmul double %121, %135
  %137 = load ptr, ptr %15, align 8, !tbaa !24
  %138 = load i64, ptr %17, align 8, !tbaa !13
  %139 = mul nsw i64 3, %138
  %140 = add nsw i64 %139, 1
  %141 = getelementptr inbounds double, ptr %137, i64 %140
  store double %136, ptr %141, align 8, !tbaa !11
  %142 = load double, ptr %16, align 8, !tbaa !11
  %143 = load ptr, ptr %14, align 8, !tbaa !24
  %144 = load i64, ptr %17, align 8, !tbaa !13
  %145 = mul nsw i64 3, %144
  %146 = add nsw i64 %145, 2
  %147 = getelementptr inbounds double, ptr %143, i64 %146
  %148 = load double, ptr %147, align 8, !tbaa !11
  %149 = load ptr, ptr %14, align 8, !tbaa !24
  %150 = load i64, ptr %17, align 8, !tbaa !13
  %151 = sub nsw i64 %150, 1
  %152 = mul nsw i64 3, %151
  %153 = add nsw i64 %152, 2
  %154 = getelementptr inbounds double, ptr %149, i64 %153
  %155 = load double, ptr %154, align 8, !tbaa !11
  %156 = fsub double %148, %155
  %157 = fmul double %142, %156
  %158 = load ptr, ptr %15, align 8, !tbaa !24
  %159 = load i64, ptr %17, align 8, !tbaa !13
  %160 = mul nsw i64 3, %159
  %161 = add nsw i64 %160, 2
  %162 = getelementptr inbounds double, ptr %158, i64 %161
  store double %157, ptr %162, align 8, !tbaa !11
  br label %163

163:                                              ; preds = %99
  %164 = load i64, ptr %17, align 8, !tbaa !13
  %165 = add nsw i64 %164, 1
  store i64 %165, ptr %17, align 8, !tbaa !13
  br label %95

166:                                              ; preds = %95
  br label %302

167:                                              ; preds = %42
  %168 = load double, ptr %12, align 8, !tbaa !11
  %169 = fcmp olt double %168, 0.000000e+00
  br i1 %169, label %170, label %301

170:                                              ; preds = %167
  store i64 0, ptr %17, align 8, !tbaa !13
  br label %171

171:                                              ; preds = %240, %170
  %172 = load i64, ptr %17, align 8, !tbaa !13
  %173 = load i64, ptr %11, align 8, !tbaa !13
  %174 = sub nsw i64 %173, 1
  %175 = icmp slt i64 %172, %174
  br i1 %175, label %176, label %243

176:                                              ; preds = %171
  %177 = load double, ptr %16, align 8, !tbaa !11
  %178 = load ptr, ptr %14, align 8, !tbaa !24
  %179 = load i64, ptr %17, align 8, !tbaa !13
  %180 = add nsw i64 %179, 1
  %181 = mul nsw i64 3, %180
  %182 = add nsw i64 %181, 0
  %183 = getelementptr inbounds double, ptr %178, i64 %182
  %184 = load double, ptr %183, align 8, !tbaa !11
  %185 = load ptr, ptr %14, align 8, !tbaa !24
  %186 = load i64, ptr %17, align 8, !tbaa !13
  %187 = mul nsw i64 3, %186
  %188 = add nsw i64 %187, 0
  %189 = getelementptr inbounds double, ptr %185, i64 %188
  %190 = load double, ptr %189, align 8, !tbaa !11
  %191 = fsub double %184, %190
  %192 = fmul double %177, %191
  %193 = load ptr, ptr %15, align 8, !tbaa !24
  %194 = load i64, ptr %17, align 8, !tbaa !13
  %195 = mul nsw i64 3, %194
  %196 = add nsw i64 %195, 0
  %197 = getelementptr inbounds double, ptr %193, i64 %196
  store double %192, ptr %197, align 8, !tbaa !11
  %198 = load double, ptr %16, align 8, !tbaa !11
  %199 = load ptr, ptr %14, align 8, !tbaa !24
  %200 = load i64, ptr %17, align 8, !tbaa !13
  %201 = add nsw i64 %200, 1
  %202 = mul nsw i64 3, %201
  %203 = add nsw i64 %202, 1
  %204 = getelementptr inbounds double, ptr %199, i64 %203
  %205 = load double, ptr %204, align 8, !tbaa !11
  %206 = load ptr, ptr %14, align 8, !tbaa !24
  %207 = load i64, ptr %17, align 8, !tbaa !13
  %208 = mul nsw i64 3, %207
  %209 = add nsw i64 %208, 1
  %210 = getelementptr inbounds double, ptr %206, i64 %209
  %211 = load double, ptr %210, align 8, !tbaa !11
  %212 = fsub double %205, %211
  %213 = fmul double %198, %212
  %214 = load ptr, ptr %15, align 8, !tbaa !24
  %215 = load i64, ptr %17, align 8, !tbaa !13
  %216 = mul nsw i64 3, %215
  %217 = add nsw i64 %216, 1
  %218 = getelementptr inbounds double, ptr %214, i64 %217
  store double %213, ptr %218, align 8, !tbaa !11
  %219 = load double, ptr %16, align 8, !tbaa !11
  %220 = load ptr, ptr %14, align 8, !tbaa !24
  %221 = load i64, ptr %17, align 8, !tbaa !13
  %222 = add nsw i64 %221, 1
  %223 = mul nsw i64 3, %222
  %224 = add nsw i64 %223, 2
  %225 = getelementptr inbounds double, ptr %220, i64 %224
  %226 = load double, ptr %225, align 8, !tbaa !11
  %227 = load ptr, ptr %14, align 8, !tbaa !24
  %228 = load i64, ptr %17, align 8, !tbaa !13
  %229 = mul nsw i64 3, %228
  %230 = add nsw i64 %229, 2
  %231 = getelementptr inbounds double, ptr %227, i64 %230
  %232 = load double, ptr %231, align 8, !tbaa !11
  %233 = fsub double %226, %232
  %234 = fmul double %219, %233
  %235 = load ptr, ptr %15, align 8, !tbaa !24
  %236 = load i64, ptr %17, align 8, !tbaa !13
  %237 = mul nsw i64 3, %236
  %238 = add nsw i64 %237, 2
  %239 = getelementptr inbounds double, ptr %235, i64 %238
  store double %234, ptr %239, align 8, !tbaa !11
  br label %240

240:                                              ; preds = %176
  %241 = load i64, ptr %17, align 8, !tbaa !13
  %242 = add nsw i64 %241, 1
  store i64 %242, ptr %17, align 8, !tbaa !13
  br label %171

243:                                              ; preds = %171
  %244 = load double, ptr %16, align 8, !tbaa !11
  %245 = load ptr, ptr %14, align 8, !tbaa !24
  %246 = load i64, ptr %11, align 8, !tbaa !13
  %247 = sub nsw i64 %246, 1
  %248 = mul nsw i64 3, %247
  %249 = add nsw i64 %248, 0
  %250 = getelementptr inbounds double, ptr %245, i64 %249
  %251 = load double, ptr %250, align 8, !tbaa !11
  %252 = load ptr, ptr %14, align 8, !tbaa !24
  %253 = getelementptr inbounds double, ptr %252, i64 0
  %254 = load double, ptr %253, align 8, !tbaa !11
  %255 = fsub double %251, %254
  %256 = fmul double %244, %255
  %257 = load ptr, ptr %15, align 8, !tbaa !24
  %258 = load i64, ptr %11, align 8, !tbaa !13
  %259 = sub nsw i64 %258, 1
  %260 = mul nsw i64 3, %259
  %261 = add nsw i64 %260, 0
  %262 = getelementptr inbounds double, ptr %257, i64 %261
  store double %256, ptr %262, align 8, !tbaa !11
  %263 = load double, ptr %16, align 8, !tbaa !11
  %264 = load ptr, ptr %14, align 8, !tbaa !24
  %265 = load i64, ptr %11, align 8, !tbaa !13
  %266 = sub nsw i64 %265, 1
  %267 = mul nsw i64 3, %266
  %268 = add nsw i64 %267, 1
  %269 = getelementptr inbounds double, ptr %264, i64 %268
  %270 = load double, ptr %269, align 8, !tbaa !11
  %271 = load ptr, ptr %14, align 8, !tbaa !24
  %272 = getelementptr inbounds double, ptr %271, i64 1
  %273 = load double, ptr %272, align 8, !tbaa !11
  %274 = fsub double %270, %273
  %275 = fmul double %263, %274
  %276 = load ptr, ptr %15, align 8, !tbaa !24
  %277 = load i64, ptr %11, align 8, !tbaa !13
  %278 = sub nsw i64 %277, 1
  %279 = mul nsw i64 3, %278
  %280 = add nsw i64 %279, 1
  %281 = getelementptr inbounds double, ptr %276, i64 %280
  store double %275, ptr %281, align 8, !tbaa !11
  %282 = load double, ptr %16, align 8, !tbaa !11
  %283 = load ptr, ptr %14, align 8, !tbaa !24
  %284 = load i64, ptr %11, align 8, !tbaa !13
  %285 = sub nsw i64 %284, 1
  %286 = mul nsw i64 3, %285
  %287 = add nsw i64 %286, 2
  %288 = getelementptr inbounds double, ptr %283, i64 %287
  %289 = load double, ptr %288, align 8, !tbaa !11
  %290 = load ptr, ptr %14, align 8, !tbaa !24
  %291 = getelementptr inbounds double, ptr %290, i64 2
  %292 = load double, ptr %291, align 8, !tbaa !11
  %293 = fsub double %289, %292
  %294 = fmul double %282, %293
  %295 = load ptr, ptr %15, align 8, !tbaa !24
  %296 = load i64, ptr %11, align 8, !tbaa !13
  %297 = sub nsw i64 %296, 1
  %298 = mul nsw i64 3, %297
  %299 = add nsw i64 %298, 2
  %300 = getelementptr inbounds double, ptr %295, i64 %299
  store double %294, ptr %300, align 8, !tbaa !11
  br label %301

301:                                              ; preds = %243, %167
  br label %302

302:                                              ; preds = %301, %166
  store i32 0, ptr %5, align 4
  store i32 1, ptr %18, align 4
  br label %303

303:                                              ; preds = %302, %41, %34
  call void @llvm.lifetime.end.p0(i64 8, ptr %17) #6
  call void @llvm.lifetime.end.p0(i64 8, ptr %16) #6
  call void @llvm.lifetime.end.p0(i64 8, ptr %15) #6
  call void @llvm.lifetime.end.p0(i64 8, ptr %14) #6
  call void @llvm.lifetime.end.p0(i64 8, ptr %13) #6
  call void @llvm.lifetime.end.p0(i64 8, ptr %12) #6
  call void @llvm.lifetime.end.p0(i64 8, ptr %11) #6
  call void @llvm.lifetime.end.p0(i64 8, ptr %10) #6
  %304 = load i32, ptr %5, align 4
  ret i32 %304
}