; Function Attrs: nounwind uwtable
define internal range(i32 0, 2) i32 @fs(double %0, ptr noundef %1, ptr noundef %2, ptr noundef readonly captures(none) %3) #0 {
  %5 = load i64, ptr %3, align 8, !tbaa !12
  %6 = getelementptr inbounds nuw i8, ptr %3, i64 32
  %7 = load double, ptr %6, align 8, !tbaa !18
  %8 = getelementptr inbounds nuw i8, ptr %3, i64 8
  %9 = load double, ptr %8, align 8, !tbaa !20
  %10 = tail call ptr @N_VGetArrayPointer(ptr noundef %1) #10
  %11 = icmp eq ptr %10, null
  br i1 %11, label %check_retval.exit, label %14

check_retval.exit:                                ; preds = %4
  %12 = load ptr, ptr @stderr, align 8, !tbaa !10
  %13 = tail call i32 (ptr, ptr, ...) @fprintf(ptr noundef %12, ptr noundef nonnull @.str.53, ptr noundef nonnull @.str.10) #11
  br label %.loopexit

14:                                               ; preds = %4
  %15 = tail call ptr @N_VGetArrayPointer(ptr noundef %2) #10
  %16 = icmp eq ptr %15, null
  br i1 %16, label %check_retval.exit98, label %19

check_retval.exit98:                              ; preds = %14
  %17 = load ptr, ptr @stderr, align 8, !tbaa !10
  %18 = tail call i32 (ptr, ptr, ...) @fprintf(ptr noundef %17, ptr noundef nonnull @.str.53, ptr noundef nonnull @.str.10) #11
  br label %.loopexit

19:                                               ; preds = %14
  %20 = fneg double %7
  %21 = fdiv double %20, %9
  %22 = fcmp ogt double %7, 0.000000e+00
  br i1 %22, label %23, label %70

23:                                               ; preds = %19
  %24 = load double, ptr %10, align 8, !tbaa !25
  %.idx103 = mul i64 %5, 24
  %25 = getelementptr i8, ptr %10, i64 %.idx103
  %26 = getelementptr i8, ptr %25, i64 -24
  %27 = load double, ptr %26, align 8, !tbaa !25
  %28 = fsub double %24, %27
  %29 = fmul double %21, %28
  store double %29, ptr %15, align 8, !tbaa !25
  %30 = getelementptr inbounds nuw i8, ptr %10, i64 8
  %31 = load double, ptr %30, align 8, !tbaa !25
  %32 = getelementptr i8, ptr %25, i64 -16
  %33 = load double, ptr %32, align 8, !tbaa !25
  %34 = fsub double %31, %33
  %35 = fmul double %21, %34
  %36 = getelementptr inbounds nuw i8, ptr %15, i64 8
  store double %35, ptr %36, align 8, !tbaa !25
  %37 = getelementptr inbounds nuw i8, ptr %10, i64 16
  %38 = load double, ptr %37, align 8, !tbaa !25
  %39 = getelementptr i8, ptr %25, i64 -8
  %40 = load double, ptr %39, align 8, !tbaa !25
  %41 = fsub double %38, %40
  %42 = fmul double %21, %41
  %43 = getelementptr inbounds nuw i8, ptr %15, i64 16
  store double %42, ptr %43, align 8, !tbaa !25
  %44 = icmp sgt i64 %5, 1
  br i1 %44, label %.lr.ph107, label %.loopexit

.lr.ph107:                                        ; preds = %23, %.lr.ph107
  %.0105 = phi i64 [ %69, %.lr.ph107 ], [ 1, %23 ]
  %45 = mul nuw nsw i64 %.0105, 3
  %46 = getelementptr inbounds nuw double, ptr %10, i64 %45
  %47 = load double, ptr %46, align 8, !tbaa !25
  %48 = getelementptr i8, ptr %46, i64 -24
  %49 = load double, ptr %48, align 8, !tbaa !25
  %50 = fsub double %47, %49
  %51 = fmul double %21, %50
  %52 = getelementptr inbounds nuw double, ptr %15, i64 %45
  store double %51, ptr %52, align 8, !tbaa !25
  %53 = add nuw nsw i64 %45, 1
  %54 = getelementptr inbounds nuw double, ptr %10, i64 %53
  %55 = load double, ptr %54, align 8, !tbaa !25
  %56 = getelementptr i8, ptr %46, i64 -16
  %57 = load double, ptr %56, align 8, !tbaa !25
  %58 = fsub double %55, %57
  %59 = fmul double %21, %58
  %60 = getelementptr inbounds nuw double, ptr %15, i64 %53
  store double %59, ptr %60, align 8, !tbaa !25
  %61 = add nuw nsw i64 %45, 2
  %62 = getelementptr inbounds nuw double, ptr %10, i64 %61
  %63 = load double, ptr %62, align 8, !tbaa !25
  %64 = getelementptr i8, ptr %46, i64 -8
  %65 = load double, ptr %64, align 8, !tbaa !25
  %66 = fsub double %63, %65
  %67 = fmul double %21, %66
  %68 = getelementptr inbounds nuw double, ptr %15, i64 %61
  store double %67, ptr %68, align 8, !tbaa !25
  %69 = add nuw nsw i64 %.0105, 1
  %exitcond108.not = icmp eq i64 %69, %5
  br i1 %exitcond108.not, label %.loopexit, label %.lr.ph107

70:                                               ; preds = %19
  %71 = fcmp olt double %7, 0.000000e+00
  br i1 %71, label %.preheader, label %.loopexit

.preheader:                                       ; preds = %70
  %72 = add i64 %5, -1
  %73 = icmp sgt i64 %5, 1
  br i1 %73, label %.lr.ph, label %._crit_edge

.lr.ph:                                           ; preds = %.preheader, %.lr.ph
  %.1104 = phi i64 [ %74, %.lr.ph ], [ 0, %.preheader ]
  %74 = add nuw nsw i64 %.1104, 1
  %.idx = mul nuw nsw i64 %74, 24
  %75 = getelementptr inbounds nuw i8, ptr %10, i64 %.idx
  %76 = load double, ptr %75, align 8, !tbaa !25
  %77 = mul nuw nsw i64 %.1104, 3
  %78 = getelementptr inbounds nuw double, ptr %10, i64 %77
  %79 = load double, ptr %78, align 8, !tbaa !25
  %80 = fsub double %76, %79
  %81 = fmul double %21, %80
  %82 = getelementptr inbounds nuw double, ptr %15, i64 %77
  store double %81, ptr %82, align 8, !tbaa !25
  %83 = getelementptr inbounds nuw i8, ptr %75, i64 8
  %84 = load double, ptr %83, align 8, !tbaa !25
  %85 = add nuw nsw i64 %77, 1
  %86 = getelementptr inbounds nuw double, ptr %10, i64 %85
  %87 = load double, ptr %86, align 8, !tbaa !25
  %88 = fsub double %84, %87
  %89 = fmul double %21, %88
  %90 = getelementptr inbounds nuw double, ptr %15, i64 %85
  store double %89, ptr %90, align 8, !tbaa !25
  %91 = getelementptr inbounds nuw i8, ptr %75, i64 16
  %92 = load double, ptr %91, align 8, !tbaa !25
  %93 = add nuw nsw i64 %77, 2
  %94 = getelementptr inbounds nuw double, ptr %10, i64 %93
  %95 = load double, ptr %94, align 8, !tbaa !25
  %96 = fsub double %92, %95
  %97 = fmul double %21, %96
  %98 = getelementptr inbounds nuw double, ptr %15, i64 %93
  store double %97, ptr %98, align 8, !tbaa !25
  %exitcond.not = icmp eq i64 %74, %72
  br i1 %exitcond.not, label %._crit_edge, label %.lr.ph

._crit_edge:                                      ; preds = %.lr.ph, %.preheader
  %99 = mul nsw i64 %72, 3
  %100 = getelementptr inbounds double, ptr %10, i64 %99
  %101 = load double, ptr %100, align 8, !tbaa !25
  %102 = load double, ptr %10, align 8, !tbaa !25
  %103 = fsub double %101, %102
  %104 = fmul double %21, %103
  %105 = getelementptr inbounds double, ptr %15, i64 %99
  store double %104, ptr %105, align 8, !tbaa !25
  %106 = add nsw i64 %99, 1
  %107 = getelementptr inbounds double, ptr %10, i64 %106
  %108 = load double, ptr %107, align 8, !tbaa !25
  %109 = getelementptr inbounds nuw i8, ptr %10, i64 8
  %110 = load double, ptr %109, align 8, !tbaa !25
  %111 = fsub double %108, %110
  %112 = fmul double %21, %111
  %113 = getelementptr inbounds double, ptr %15, i64 %106
  store double %112, ptr %113, align 8, !tbaa !25
  %114 = add nsw i64 %99, 2
  %115 = getelementptr inbounds double, ptr %10, i64 %114
  %116 = load double, ptr %115, align 8, !tbaa !25
  %117 = getelementptr inbounds nuw i8, ptr %10, i64 16
  %118 = load double, ptr %117, align 8, !tbaa !25
  %119 = fsub double %116, %118
  %120 = fmul double %21, %119
  %121 = getelementptr inbounds double, ptr %15, i64 %114
  store double %120, ptr %121, align 8, !tbaa !25
  br label %.loopexit

.loopexit:                                        ; preds = %.lr.ph107, %23, %check_retval.exit98, %check_retval.exit, %._crit_edge, %70
  %.093 = phi i32 [ 1, %check_retval.exit ], [ 1, %check_retval.exit98 ], [ 0, %70 ], [ 0, %._crit_edge ], [ 0, %23 ], [ 0, %.lr.ph107 ]
  ret i32 %.093
}